; Function Attrs: mustprogress uwtable
define void @_ZNK3gmx20AffineTransformationclENS_8ArrayRefINS_11BasicVectorIfEEEE(ptr noundef nonnull align 8 dereferenceable(68) %0, ptr %1, ptr readnone %2) local_unnamed_addr #13 align 2 {
  %.not11 = icmp eq ptr %1, %2
  br i1 %.not11, label %._crit_edge, label %.lr.ph

.lr.ph:                                           ; preds = %3
  %4 = getelementptr inbounds i8, ptr %0, i64 56
  %5 = getelementptr inbounds i8, ptr %0, i64 64
  br label %6

6:                                                ; preds = %.lr.ph, %6
  %.sroa.0.012 = phi ptr [ %1, %.lr.ph ], [ %14, %6 ]
  tail call void @_ZN3gmx20matrixVectorMultiplyENS_12basic_mdspanIKfNS_7extentsIJLl3ELl3EEEENS_12layout_rightENS_14accessor_basicIS1_EEEEPNS_11BasicVectorIfEE(ptr nonnull %0, ptr noundef nonnull %.sroa.0.012)
  %7 = load <2 x float>, ptr %.sroa.0.012, align 4
  %8 = load <2 x float>, ptr %4, align 8
  %9 = fadd <2 x float> %7, %8
  %10 = getelementptr inbounds i8, ptr %.sroa.0.012, i64 8
  %11 = load float, ptr %10, align 4
  %12 = load float, ptr %5, align 8
  %13 = fadd float %11, %12
  store <2 x float> %9, ptr %.sroa.0.012, align 4
  store float %13, ptr %10, align 4
  %14 = getelementptr inbounds i8, ptr %.sroa.0.012, i64 12
  %.not = icmp eq ptr %14, %2
  br i1 %.not, label %._crit_edge, label %6

._crit_edge:                                      ; preds = %6, %3
  ret void
}